target datalayout = "e-m:e-p270:32:32-p271:32:32-p272:64:64-i64:64-i128:128-f80:128-n8:16:32:64-S128"
target triple = "x86_64-unknown-linux-gnu"

%"class.std::set.0" = type { %"class.std::_Rb_tree.1" }
%"class.std::_Rb_tree.1" = type { %"struct.std::_Rb_tree<QuantLib::Observer *, QuantLib::Observer *, std::_Identity<QuantLib::Observer *>, std::less<QuantLib::Observer *>>::_Rb_tree_impl" }
%"struct.std::_Rb_tree<QuantLib::Observer *, QuantLib::Observer *, std::_Identity<QuantLib::Observer *>, std::less<QuantLib::Observer *>>::_Rb_tree_impl" = type { [8 x i8], %"struct.std::_Rb_tree_header" }
%"struct.std::_Rb_tree_header" = type { %"struct.std::_Rb_tree_node_base", i64 }
%"struct.std::_Rb_tree_node_base" = type { i32, ptr, ptr, ptr }
%"class.std::set" = type { %"class.std::_Rb_tree" }
%"class.std::_Rb_tree" = type { %"struct.std::_Rb_tree<boost::shared_ptr<QuantLib::Observable>, boost::shared_ptr<QuantLib::Observable>, std::_Identity<boost::shared_ptr<QuantLib::Observable>>, std::less<boost::shared_ptr<QuantLib::Observable>>>::_Rb_tree_impl" }
%"struct.std::_Rb_tree<boost::shared_ptr<QuantLib::Observable>, boost::shared_ptr<QuantLib::Observable>, std::_Identity<boost::shared_ptr<QuantLib::Observable>>, std::less<boost::shared_ptr<QuantLib::Observable>>>::_Rb_tree_impl" = type { [8 x i8], %"struct.std::_Rb_tree_header" }
%"class.boost::detail::shared_count" = type { ptr }
%"class.QuantLib::Observable" = type { ptr, %"class.std::set.0" }
%"class.QuantLib::Observer" = type { ptr, %"class.std::set" }
%"class.QuantLib::Date" = type { i64 }
%"class.std::map" = type { %"class.std::_Rb_tree.12" }
%"class.std::_Rb_tree.12" = type { %"struct.std::_Rb_tree<std::__cxx11::basic_string<char>, std::pair<const std::__cxx11::basic_string<char>, boost::any>, std::_Select1st<std::pair<const std::__cxx11::basic_string<char>, boost::any>>, std::less<std::__cxx11::basic_string<char>>>::_Rb_tree_impl" }
%"struct.std::_Rb_tree<std::__cxx11::basic_string<char>, std::pair<const std::__cxx11::basic_string<char>, boost::any>, std::_Select1st<std::pair<const std::__cxx11::basic_string<char>, boost::any>>, std::less<std::__cxx11::basic_string<char>>>::_Rb_tree_impl" = type { [8 x i8], %"struct.std::_Rb_tree_header" }
%"class.boost::shared_ptr.18" = type { ptr, %"class.boost::detail::shared_count" }
%"class.boost::shared_ptr.19" = type { ptr, %"class.boost::detail::shared_count" }
%"class.QuantLib::Option::arguments" = type { %"class.QuantLib::PricingEngine::arguments", %"class.boost::shared_ptr.18", %"class.boost::shared_ptr.19" }
%"class.QuantLib::PricingEngine::arguments" = type { ptr }
%"class.QuantLib::FdHestonHullWhiteVanillaEngine" = type { %"class.QuantLib::GenericModelEngine", %"class.boost::shared_ptr.29", %"class.std::vector.31", double, i64, i64, i64, i64, i64, %"struct.QuantLib::FdmSchemeDesc", i8, %"class.std::vector", %"class.std::vector.36" }
%"class.QuantLib::GenericModelEngine" = type { %"class.QuantLib::GenericEngine", %"class.QuantLib::Handle" }
%"class.QuantLib::GenericEngine" = type { %"class.QuantLib::PricingEngine", %"class.QuantLib::Observer", %"class.QuantLib::Option::arguments", %"class.QuantLib::OneAssetOption::results" }
%"class.QuantLib::PricingEngine" = type { %"class.QuantLib::Observable" }
%"class.QuantLib::OneAssetOption::results" = type { %"class.QuantLib::Instrument::results", %"class.QuantLib::Greeks", %"class.QuantLib::MoreGreeks" }
%"class.QuantLib::Instrument::results" = type { %"class.QuantLib::PricingEngine::results", double, double, %"class.QuantLib::Date", %"class.std::map" }
%"class.QuantLib::PricingEngine::results" = type { ptr }
%"class.QuantLib::Greeks" = type { %"class.QuantLib::PricingEngine::results", double, double, double, double, double, double }
%"class.QuantLib::MoreGreeks" = type { %"class.QuantLib::PricingEngine::results", double, double, double, double, double }
%"class.QuantLib::Handle" = type { %"class.boost::shared_ptr.30" }
%"class.boost::shared_ptr.30" = type { ptr, %"class.boost::detail::shared_count" }
%"class.boost::shared_ptr.29" = type { ptr, %"class.boost::detail::shared_count" }
%"class.std::vector.31" = type { %"struct.std::_Vector_base.32" }
%"struct.std::_Vector_base.32" = type { %"struct.std::_Vector_base<boost::shared_ptr<QuantLib::Dividend>, std::allocator<boost::shared_ptr<QuantLib::Dividend>>>::_Vector_impl" }
%"struct.std::_Vector_base<boost::shared_ptr<QuantLib::Dividend>, std::allocator<boost::shared_ptr<QuantLib::Dividend>>>::_Vector_impl" = type { %"struct.std::_Vector_base<boost::shared_ptr<QuantLib::Dividend>, std::allocator<boost::shared_ptr<QuantLib::Dividend>>>::_Vector_impl_data" }
%"struct.std::_Vector_base<boost::shared_ptr<QuantLib::Dividend>, std::allocator<boost::shared_ptr<QuantLib::Dividend>>>::_Vector_impl_data" = type { ptr, ptr, ptr }
%"struct.QuantLib::FdmSchemeDesc" = type { i32, double, double }
%"class.std::vector" = type { %"struct.std::_Vector_base" }
%"struct.std::_Vector_base" = type { %"struct.std::_Vector_base<double, std::allocator<double>>::_Vector_impl" }
%"struct.std::_Vector_base<double, std::allocator<double>>::_Vector_impl" = type { %"struct.std::_Vector_base<double, std::allocator<double>>::_Vector_impl_data" }
%"struct.std::_Vector_base<double, std::allocator<double>>::_Vector_impl_data" = type { ptr, ptr, ptr }
%"class.std::vector.36" = type { %"struct.std::_Vector_base.37" }
%"struct.std::_Vector_base.37" = type { %"struct.std::_Vector_base<std::pair<QuantLib::Option::arguments, QuantLib::OneAssetOption::results>, std::allocator<std::pair<QuantLib::Option::arguments, QuantLib::OneAssetOption::results>>>::_Vector_impl" }
%"struct.std::_Vector_base<std::pair<QuantLib::Option::arguments, QuantLib::OneAssetOption::results>, std::allocator<std::pair<QuantLib::Option::arguments, QuantLib::OneAssetOption::results>>>::_Vector_impl" = type { %"struct.std::_Vector_base<std::pair<QuantLib::Option::arguments, QuantLib::OneAssetOption::results>, std::allocator<std::pair<QuantLib::Option::arguments, QuantLib::OneAssetOption::results>>>::_Vector_impl_data" }
%"struct.std::_Vector_base<std::pair<QuantLib::Option::arguments, QuantLib::OneAssetOption::results>, std::allocator<std::pair<QuantLib::Option::arguments, QuantLib::OneAssetOption::results>>>::_Vector_impl_data" = type { ptr, ptr, ptr }

; Function Attrs: inlinehint mustprogress uwtable
define linkonce_odr void @_ZSt8_DestroyIPSt4pairIN8QuantLib6Option9argumentsENS1_14OneAssetOption7resultsEEEvT_S8_(ptr noundef %__first, ptr noundef %__last) #4 comdat {
entry:
  %__first.addr = alloca ptr, align 8
  %__last.addr = alloca ptr, align 8
  store ptr %__first, ptr %__first.addr, align 8, !tbaa !3
  store ptr %__last, ptr %__last.addr, align 8, !tbaa !3
  %0 = load ptr, ptr %__first.addr, align 8, !tbaa !3
  %1 = load ptr, ptr %__last.addr, align 8, !tbaa !3
  call void @_ZNSt12_Destroy_auxILb0EE9__destroyIPSt4pairIN8QuantLib6Option9argumentsENS3_14OneAssetOption7resultsEEEEvT_SA_(ptr noundef %0, ptr noundef %1)
  ret void
}

; Function Attrs: inlinehint mustprogress uwtable
define linkonce_odr void @_ZSt8_DestroyIPSt4pairIN8QuantLib6Option9argumentsENS1_14OneAssetOption7resultsEES6_EvT_S8_RSaIT0_E(ptr noundef %__first, ptr noundef %__last, ptr noundef nonnull align 1 dereferenceable(1) %0) #4 comdat {
entry:
  %__first.addr = alloca ptr, align 8
  %__last.addr = alloca ptr, align 8
  %.addr = alloca ptr, align 8
  store ptr %__first, ptr %__first.addr, align 8, !tbaa !3
  store ptr %__last, ptr %__last.addr, align 8, !tbaa !3
  store ptr %0, ptr %.addr, align 8, !tbaa !3
  %1 = load ptr, ptr %__first.addr, align 8, !tbaa !3
  %2 = load ptr, ptr %__last.addr, align 8, !tbaa !3
  call void @_ZSt8_DestroyIPSt4pairIN8QuantLib6Option9argumentsENS1_14OneAssetOption7resultsEEEvT_S8_(ptr noundef %1, ptr noundef %2)
  ret void
}

; Function Attrs: mustprogress nounwind uwtable
define linkonce_odr noundef nonnull align 1 dereferenceable(1) ptr @_ZNSt12_Vector_baseISt4pairIN8QuantLib6Option9argumentsENS1_14OneAssetOption7resultsEESaIS6_EE19_M_get_Tp_allocatorEv(ptr noundef nonnull align 8 dereferenceable(24) %this) #1 comdat align 2 {
entry:
  %this.addr = alloca ptr, align 8
  store ptr %this, ptr %this.addr, align 8, !tbaa !3
  %this1 = load ptr, ptr %this.addr, align 8
  %_M_impl = getelementptr inbounds nuw %"struct.std::_Vector_base.37", ptr %this1, i32 0, i32 0
  ret ptr %_M_impl
}

; Function Attrs: mustprogress nounwind uwtable
define linkonce_odr void @_ZNSt6vectorISt4pairIN8QuantLib6Option9argumentsENS1_14OneAssetOption7resultsEESaIS6_EE15_M_erase_at_endEPS6_(ptr noundef nonnull align 8 dereferenceable(24) %this, ptr noundef %__pos) #1 comdat align 2 personality ptr @__gxx_personality_v0 {
entry:
  %this.addr = alloca ptr, align 8
  %__pos.addr = alloca ptr, align 8
  %__n = alloca i64, align 8
  store ptr %this, ptr %this.addr, align 8, !tbaa !3
  store ptr %__pos, ptr %__pos.addr, align 8, !tbaa !3
  %this1 = load ptr, ptr %this.addr, align 8
  call void @llvm.lifetime.start.p0(i64 8, ptr %__n) #12
  %_M_impl = getelementptr inbounds nuw %"struct.std::_Vector_base.37", ptr %this1, i32 0, i32 0
  %_M_finish = getelementptr inbounds nuw %"struct.std::_Vector_base<std::pair<QuantLib::Option::arguments, QuantLib::OneAssetOption::results>, std::allocator<std::pair<QuantLib::Option::arguments, QuantLib::OneAssetOption::results>>>::_Vector_impl_data", ptr %_M_impl, i32 0, i32 1
  %0 = load ptr, ptr %_M_finish, align 8, !tbaa !212
  %1 = load ptr, ptr %__pos.addr, align 8, !tbaa !3
  %sub.ptr.lhs.cast = ptrtoint ptr %0 to i64
  %sub.ptr.rhs.cast = ptrtoint ptr %1 to i64
  %sub.ptr.sub = sub i64 %sub.ptr.lhs.cast, %sub.ptr.rhs.cast
  %sub.ptr.div = sdiv exact i64 %sub.ptr.sub, 224
  store i64 %sub.ptr.div, ptr %__n, align 8, !tbaa !26
  %2 = load i64, ptr %__n, align 8, !tbaa !26
  %tobool = icmp ne i64 %2, 0
  br i1 %tobool, label %if.then, label %if.end

if.then:                                          ; preds = %entry
  %3 = load ptr, ptr %__pos.addr, align 8, !tbaa !3
  %_M_impl2 = getelementptr inbounds nuw %"struct.std::_Vector_base.37", ptr %this1, i32 0, i32 0
  %_M_finish3 = getelementptr inbounds nuw %"struct.std::_Vector_base<std::pair<QuantLib::Option::arguments, QuantLib::OneAssetOption::results>, std::allocator<std::pair<QuantLib::Option::arguments, QuantLib::OneAssetOption::results>>>::_Vector_impl_data", ptr %_M_impl2, i32 0, i32 1
  %4 = load ptr, ptr %_M_finish3, align 8, !tbaa !212
  %call = call noundef nonnull align 1 dereferenceable(1) ptr @_ZNSt12_Vector_baseISt4pairIN8QuantLib6Option9argumentsENS1_14OneAssetOption7resultsEESaIS6_EE19_M_get_Tp_allocatorEv(ptr noundef nonnull align 8 dereferenceable(24) %this1) #12
  invoke void @_ZSt8_DestroyIPSt4pairIN8QuantLib6Option9argumentsENS1_14OneAssetOption7resultsEES6_EvT_S8_RSaIT0_E(ptr noundef %3, ptr noundef %4, ptr noundef nonnull align 1 dereferenceable(1) %call)
          to label %invoke.cont unwind label %terminate.lpad

invoke.cont:                                      ; preds = %if.then
  %5 = load ptr, ptr %__pos.addr, align 8, !tbaa !3
  %_M_impl4 = getelementptr inbounds nuw %"struct.std::_Vector_base.37", ptr %this1, i32 0, i32 0
  %_M_finish5 = getelementptr inbounds nuw %"struct.std::_Vector_base<std::pair<QuantLib::Option::arguments, QuantLib::OneAssetOption::results>, std::allocator<std::pair<QuantLib::Option::arguments, QuantLib::OneAssetOption::results>>>::_Vector_impl_data", ptr %_M_impl4, i32 0, i32 1
  store ptr %5, ptr %_M_finish5, align 8, !tbaa !212
  br label %if.end

if.end:                                           ; preds = %invoke.cont, %entry
  call void @llvm.lifetime.end.p0(i64 8, ptr %__n) #12
  ret void

terminate.lpad:                                   ; preds = %if.then
  %6 = landingpad { ptr, i32 }
          catch ptr null
  %7 = extractvalue { ptr, i32 } %6, 0
  call void @__clang_call_terminate(ptr %7) #23
  unreachable
}

; Function Attrs: mustprogress uwtable
define linkonce_odr void @_ZN8QuantLib13GenericEngineINS_6Option9argumentsENS_14OneAssetOption7resultsEE6updateEv(ptr noundef nonnull align 8 dereferenceable(336) %this) unnamed_addr #2 comdat align 2 {
entry:
  %this.addr = alloca ptr, align 8
  store ptr %this, ptr %this.addr, align 8, !tbaa !3
  %this1 = load ptr, ptr %this.addr, align 8
  call void @_ZN8QuantLib10Observable15notifyObserversEv(ptr noundef nonnull align 8 dereferenceable(56) %this1)
  ret void
}

; Function Attrs: mustprogress nounwind uwtable
define linkonce_odr void @_ZNSt6vectorISt4pairIN8QuantLib6Option9argumentsENS1_14OneAssetOption7resultsEESaIS6_EE5clearEv(ptr noundef nonnull align 8 dereferenceable(24) %this) #1 comdat align 2 {
entry:
  %this.addr = alloca ptr, align 8
  store ptr %this, ptr %this.addr, align 8, !tbaa !3
  %this1 = load ptr, ptr %this.addr, align 8
  %_M_impl = getelementptr inbounds nuw %"struct.std::_Vector_base.37", ptr %this1, i32 0, i32 0
  %_M_start = getelementptr inbounds nuw %"struct.std::_Vector_base<std::pair<QuantLib::Option::arguments, QuantLib::OneAssetOption::results>, std::allocator<std::pair<QuantLib::Option::arguments, QuantLib::OneAssetOption::results>>>::_Vector_impl_data", ptr %_M_impl, i32 0, i32 0
  %0 = load ptr, ptr %_M_start, align 8, !tbaa !169
  call void @_ZNSt6vectorISt4pairIN8QuantLib6Option9argumentsENS1_14OneAssetOption7resultsEESaIS6_EE15_M_erase_at_endEPS6_(ptr noundef nonnull align 8 dereferenceable(24) %this1, ptr noundef %0) #12
  ret void
}

; Function Attrs: mustprogress uwtable
define void @_ZN8QuantLib30FdHestonHullWhiteVanillaEngine6updateEv(ptr noundef nonnull align 8 dereferenceable(520) %this) unnamed_addr #2 align 2 {
entry:
  %this.addr = alloca ptr, align 8
  store ptr %this, ptr %this.addr, align 8, !tbaa !3
  %this1 = load ptr, ptr %this.addr, align 8
  %cachedArgs2results_ = getelementptr inbounds nuw %"class.QuantLib::FdHestonHullWhiteVanillaEngine", ptr %this1, i32 0, i32 12
  call void @_ZNSt6vectorISt4pairIN8QuantLib6Option9argumentsENS1_14OneAssetOption7resultsEESaIS6_EE5clearEv(ptr noundef nonnull align 8 dereferenceable(24) %cachedArgs2results_) #12
  call void @_ZN8QuantLib13GenericEngineINS_6Option9argumentsENS_14OneAssetOption7resultsEE6updateEv(ptr noundef nonnull align 8 dereferenceable(336) %this1)
  ret void
}